; Function Attrs: mustprogress nounwind uwtable
define dso_local noundef nonnull align 8 dereferenceable(72) ptr @_ZNK4llvm2gi10CXXPattern10expandCodeERKNS_14CodeExpansionsENS_8ArrayRefINS_5SMLocEEENS_12function_refIFvRNS_11raw_ostreamEEEE(ptr noundef nonnull align 8 dereferenceable(72) %0, ptr noundef nonnull align 8 dereferenceable(24) %1, ptr %2, i64 %3, ptr readonly %4, i64 %5) local_unnamed_addr #0 align 2 {
  %7 = alloca %"class.std::__cxx11::basic_string", align 8
  %8 = alloca %"class.std::__cxx11::basic_string", align 8
  %9 = alloca %"class.llvm::raw_string_ostream", align 8
  %10 = alloca %"class.llvm::CodeExpander", align 8
  %11 = alloca %"class.std::__cxx11::basic_string", align 8
  call void @_ZNSt7__cxx1112basic_stringIcSt11char_traitsIcESaIcEEC1Ev(ptr noundef nonnull align 8 dereferenceable(32) %8) #25
  %12 = getelementptr inbounds nuw i8, ptr %9, i64 8
  store i32 0, ptr %12, align 8
  %13 = getelementptr inbounds nuw i8, ptr %9, i64 40
  store i8 0, ptr %13, align 8
  %14 = getelementptr inbounds nuw i8, ptr %9, i64 44
  store i32 1, ptr %14, align 4
  %15 = getelementptr inbounds nuw i8, ptr %9, i64 16
  call void @llvm.memset.p0.i64(ptr noundef nonnull align 8 dereferenceable(24) %15, i8 0, i64 24, i1 false)
  store ptr getelementptr inbounds inrange(-16, 104) (i8, ptr @_ZTVN4llvm18raw_string_ostreamE, i64 16), ptr %9, align 8
  %16 = getelementptr inbounds nuw i8, ptr %9, i64 48
  store ptr %8, ptr %16, align 8
  call void @_ZN4llvm11raw_ostream16SetBufferAndModeEPcmNS0_10BufferKindE(ptr noundef nonnull align 8 dereferenceable(48) %9, ptr noundef null, i64 noundef 0, i32 noundef 0) #25
  %.not = icmp eq ptr %4, null
  br i1 %.not, label %18, label %17

17:                                               ; preds = %6
  call void %4(i64 noundef %5, ptr noundef nonnull align 8 dereferenceable(48) %9) #25
  br label %18

18:                                               ; preds = %17, %6
  %19 = getelementptr inbounds nuw i8, ptr %0, i64 40
  %20 = call noundef ptr @_ZNKSt7__cxx1112basic_stringIcSt11char_traitsIcESaIcEE4dataEv(ptr noundef nonnull align 8 dereferenceable(32) %19) #25
  %21 = call noundef i64 @_ZNKSt7__cxx1112basic_stringIcSt11char_traitsIcESaIcEE6lengthEv(ptr noundef nonnull align 8 dereferenceable(32) %19) #25
  store ptr %20, ptr %10, align 8
  %.sroa.2.0..sroa_idx.i = getelementptr inbounds i8, ptr %10, i64 8
  store i64 %21, ptr %.sroa.2.0..sroa_idx.i, align 8
  %22 = getelementptr inbounds nuw i8, ptr %10, i64 16
  store ptr %1, ptr %22, align 8
  %23 = getelementptr inbounds nuw i8, ptr %10, i64 24
  store ptr %2, ptr %23, align 8
  %.sroa.27.0..sroa_idx = getelementptr inbounds i8, ptr %10, i64 32
  store i64 %3, ptr %.sroa.27.0..sroa_idx, align 8
  %24 = getelementptr inbounds nuw i8, ptr %10, i64 40
  store i8 0, ptr %24, align 8
  %25 = getelementptr inbounds nuw i8, ptr %10, i64 48
  store ptr @.str.28, ptr %25, align 8
  %.sroa.4.0..sroa_idx = getelementptr inbounds i8, ptr %10, i64 56
  store i64 4, ptr %.sroa.4.0..sroa_idx, align 8
  call void @_ZNK4llvm12CodeExpander4emitERNS_11raw_ostreamE(ptr noundef nonnull align 8 dereferenceable(64) %10, ptr noundef nonnull align 8 dereferenceable(48) %9) #25
  call void @_ZNSt7__cxx1112basic_stringIcSt11char_traitsIcESaIcEEC1EOS4_(ptr noundef nonnull align 8 dereferenceable(32) %11, ptr noundef nonnull align 8 dereferenceable(32) %8) #25
  call void @llvm.lifetime.start.p0(i64 32, ptr nonnull %7)
  call void @_ZNSt7__cxx1112basic_stringIcSt11char_traitsIcESaIcEEC1EOS4_(ptr noundef nonnull align 8 dereferenceable(32) %7, ptr noundef nonnull align 8 dereferenceable(32) %11) #25
  %26 = call noundef nonnull align 8 dereferenceable(72) ptr @_ZN4llvm2gi16CXXPredicateCode3getERNS_8DenseMapINS_9hash_codeESt10unique_ptrIS1_St14default_deleteIS1_EENS_12DenseMapInfoIS3_vEENS_6detail12DenseMapPairIS3_S7_EEEENSt7__cxx1112basic_stringIcSt11char_traitsIcESaIcEEE(ptr noundef nonnull align 1 @_ZN4llvm2gi16CXXPredicateCode15AllCXXMatchCodeE, ptr noundef nonnull %7) #25
  call void @_ZNSt7__cxx1112basic_stringIcSt11char_traitsIcESaIcEED1Ev(ptr noundef nonnull align 8 dereferenceable(32) %7) #25
  call void @llvm.lifetime.end.p0(i64 32, ptr nonnull %7)
  call void @_ZNSt7__cxx1112basic_stringIcSt11char_traitsIcESaIcEED1Ev(ptr noundef nonnull align 8 dereferenceable(32) %11) #25
  call void @_ZN4llvm11raw_ostreamD2Ev(ptr noundef nonnull align 8 dereferenceable(48) %9) #25
  call void @_ZNSt7__cxx1112basic_stringIcSt11char_traitsIcESaIcEED1Ev(ptr noundef nonnull align 8 dereferenceable(32) %8) #25
  ret ptr %26
}